; Function Attrs: nounwind uwtable
define noalias noundef ptr @Cnf_DataCollectCoSatNums(ptr noundef readonly captures(none) %0, ptr noundef readonly captures(none) %1) local_unnamed_addr #0 {
  %3 = getelementptr i8, ptr %1, i64 140
  %.val10 = load i32, ptr %3, align 4, !tbaa !14
  %4 = tail call noalias dereferenceable_or_null(16) ptr @malloc(i64 noundef 16) #25
  %5 = add i32 %.val10, -1
  %or.cond.i = icmp ult i32 %5, 15
  %spec.store.select.i = select i1 %or.cond.i, i32 16, i32 %.val10
  %6 = getelementptr inbounds nuw i8, ptr %4, i64 4
  store i32 0, ptr %6, align 4, !tbaa !71
  store i32 %spec.store.select.i, ptr %4, align 8, !tbaa !72
  %.not.i = icmp eq i32 %spec.store.select.i, 0
  br i1 %.not.i, label %Vec_IntAlloc.exit, label %7

7:                                                ; preds = %2
  %8 = sext i32 %spec.store.select.i to i64
  %9 = shl nsw i64 %8, 2
  %10 = tail call noalias ptr @malloc(i64 noundef %9) #25
  br label %Vec_IntAlloc.exit

Vec_IntAlloc.exit:                                ; preds = %2, %7
  %11 = phi ptr [ %10, %7 ], [ null, %2 ]
  %12 = getelementptr inbounds nuw i8, ptr %4, i64 8
  store ptr %11, ptr %12, align 8, !tbaa !29
  %13 = getelementptr inbounds nuw i8, ptr %1, i64 24
  %14 = load ptr, ptr %13, align 8, !tbaa !60
  %15 = getelementptr i8, ptr %14, i64 4
  %.val11 = load i32, ptr %15, align 4, !tbaa !33
  %16 = icmp sgt i32 %.val11, 0
  br i1 %16, label %.lr.ph, label %.critedge

.lr.ph:                                           ; preds = %Vec_IntAlloc.exit
  %17 = getelementptr inbounds nuw i8, ptr %0, i64 32
  br label %18

18:                                               ; preds = %.lr.ph, %Vec_IntPush.exit
  %19 = phi ptr [ %11, %.lr.ph ], [ %.pre.i15, %Vec_IntPush.exit ]
  %indvars.iv = phi i64 [ 0, %.lr.ph ], [ %indvars.iv.next, %Vec_IntPush.exit ]
  %20 = phi ptr [ %14, %.lr.ph ], [ %51, %Vec_IntPush.exit ]
  %21 = getelementptr i8, ptr %20, i64 8
  %.val9 = load ptr, ptr %21, align 8, !tbaa !36
  %22 = getelementptr inbounds nuw ptr, ptr %.val9, i64 %indvars.iv
  %23 = load ptr, ptr %22, align 8, !tbaa !37
  %24 = load ptr, ptr %17, align 8, !tbaa !74
  %25 = getelementptr inbounds nuw i8, ptr %23, i64 36
  %26 = load i32, ptr %25, align 4, !tbaa !77
  %27 = sext i32 %26 to i64
  %28 = getelementptr inbounds i32, ptr %24, i64 %27
  %29 = load i32, ptr %28, align 4, !tbaa !14
  %30 = load i32, ptr %6, align 4, !tbaa !71
  %31 = load i32, ptr %4, align 8, !tbaa !72
  %32 = icmp eq i32 %30, %31
  br i1 %32, label %33, label %Vec_IntPush.exit

33:                                               ; preds = %18
  %34 = icmp slt i32 %30, 16
  br i1 %34, label %35, label %40

35:                                               ; preds = %33
  %.not9.i.i = icmp eq ptr %19, null
  br i1 %.not9.i.i, label %38, label %36

36:                                               ; preds = %35
  %37 = tail call dereferenceable_or_null(64) ptr @realloc(ptr noundef nonnull %19, i64 noundef 64) #24
  br label %Vec_IntPush.exit.sink.split

38:                                               ; preds = %35
  %39 = tail call noalias dereferenceable_or_null(64) ptr @malloc(i64 noundef 64) #25
  br label %Vec_IntPush.exit.sink.split

40:                                               ; preds = %33
  %41 = shl nuw nsw i32 %30, 1
  %.not9.i9.i = icmp eq ptr %19, null
  %42 = zext nneg i32 %41 to i64
  %43 = shl nuw nsw i64 %42, 2
  br i1 %.not9.i9.i, label %46, label %44

44:                                               ; preds = %40
  %45 = tail call ptr @realloc(ptr noundef nonnull %19, i64 noundef %43) #24
  br label %Vec_IntPush.exit.sink.split

46:                                               ; preds = %40
  %47 = tail call noalias ptr @malloc(i64 noundef %43) #25
  br label %Vec_IntPush.exit.sink.split

Vec_IntPush.exit.sink.split:                      ; preds = %44, %46, %36, %38
  %.sink16 = phi ptr [ %37, %36 ], [ %39, %38 ], [ %45, %44 ], [ %47, %46 ]
  %.sink = phi i32 [ 16, %36 ], [ 16, %38 ], [ %41, %44 ], [ %41, %46 ]
  store ptr %.sink16, ptr %12, align 8, !tbaa !29
  store i32 %.sink, ptr %4, align 8, !tbaa !72
  br label %Vec_IntPush.exit

Vec_IntPush.exit:                                 ; preds = %Vec_IntPush.exit.sink.split, %18
  %.pre.i15 = phi ptr [ %19, %18 ], [ %.sink16, %Vec_IntPush.exit.sink.split ]
  %48 = add nsw i32 %30, 1
  store i32 %48, ptr %6, align 4, !tbaa !71
  %49 = sext i32 %30 to i64
  %50 = getelementptr inbounds i32, ptr %.pre.i15, i64 %49
  store i32 %29, ptr %50, align 4, !tbaa !14
  %indvars.iv.next = add nuw nsw i64 %indvars.iv, 1
  %51 = load ptr, ptr %13, align 8, !tbaa !60
  %52 = getelementptr i8, ptr %51, i64 4
  %.val = load i32, ptr %52, align 4, !tbaa !33
  %53 = sext i32 %.val to i64
  %54 = icmp slt i64 %indvars.iv.next, %53
  br i1 %54, label %18, label %.critedge, !llvm.loop !79

.critedge:                                        ; preds = %Vec_IntPush.exit, %Vec_IntAlloc.exit
  ret ptr %4
}